target datalayout = "e-m:e-p270:32:32-p271:32:32-p272:64:64-i64:64-i128:128-f80:128-n8:16:32:64-S128"
target triple = "x86_64-pc-linux-gnu"

%"class.llvm::Value" = type { i8, i8, i16, i32, ptr, ptr }

; Function Attrs: mustprogress nounwind uwtable
define linkonce_odr hidden noundef i32 @_ZN4llvm17bitfields_details10CompressorIjLj3ELb1EE6unpackEj(i32 noundef %0) #0 comdat align 2 {
  %2 = alloca i32, align 4
  store i32 %0, ptr %2, align 4
  %3 = load i32, ptr %2, align 4
  ret i32 %3
}

; Function Attrs: mustprogress nounwind uwtable
define linkonce_odr hidden noundef i32 @_ZN4llvm17bitfields_details4ImplINS_8Bitfield7ElementINS_14AtomicOrderingELj7ELj3ELS4_7EEEtE7extractEt(i16 noundef zeroext %0) #0 comdat align 2 {
  %2 = alloca i16, align 2
  %3 = alloca i16, align 2
  store i16 %0, ptr %2, align 2
  %4 = load i16, ptr %2, align 2
  %5 = zext i16 %4 to i32
  %6 = and i32 %5, 896
  %7 = ashr i32 %6, 7
  %8 = trunc i32 %7 to i16
  store i16 %8, ptr %3, align 2
  %9 = load i16, ptr %3, align 2
  %10 = zext i16 %9 to i32
  %11 = call noundef i32 @_ZN4llvm17bitfields_details10CompressorIjLj3ELb1EE6unpackEj(i32 noundef %10)
  ret i32 %11
}

; Function Attrs: mustprogress nounwind uwtable
define linkonce_odr hidden noundef zeroext i16 @_ZNK4llvm5Value24getSubclassDataFromValueEv(ptr noundef nonnull align 8 dereferenceable(24) %0) #0 comdat align 2 {
  %2 = alloca ptr, align 8
  store ptr %0, ptr %2, align 8
  %3 = load ptr, ptr %2, align 8
  %4 = getelementptr inbounds nuw %"class.llvm::Value", ptr %3, i32 0, i32 2
  %5 = load i16, ptr %4, align 2
  ret i16 %5
}

; Function Attrs: mustprogress nounwind uwtable
define linkonce_odr hidden noundef ptr @_ZN4llvm16cast_convert_valINS_9StoreInstEPKNS_11InstructionES4_E4doitES4_(ptr noundef %0) #0 comdat align 2 {
  %2 = alloca ptr, align 8
  store ptr %0, ptr %2, align 8
  %3 = load ptr, ptr %2, align 8
  ret ptr %3
}

; Function Attrs: mustprogress nounwind uwtable
define linkonce_odr hidden noundef i32 @_ZN4llvm8Bitfield3getINS0_7ElementINS_14AtomicOrderingELj7ELj3ELS3_7EEEtEENT_4TypeET0_(i16 noundef zeroext %0) #0 comdat align 2 {
  %2 = alloca i16, align 2
  store i16 %0, ptr %2, align 2
  %3 = load i16, ptr %2, align 2
  %4 = call noundef i32 @_ZN4llvm17bitfields_details4ImplINS_8Bitfield7ElementINS_14AtomicOrderingELj7ELj3ELS4_7EEEtE7extractEt(i16 noundef zeroext %3)
  ret i32 %4
}

; Function Attrs: mustprogress nounwind uwtable
define linkonce_odr hidden noundef zeroext i16 @_ZNK4llvm11Instruction24getSubclassDataFromValueEv(ptr noundef nonnull align 8 dereferenceable(72) %0) #0 comdat align 2 {
  %2 = alloca ptr, align 8
  store ptr %0, ptr %2, align 8
  %3 = load ptr, ptr %2, align 8
  %4 = call noundef zeroext i16 @_ZNK4llvm5Value24getSubclassDataFromValueEv(ptr noundef nonnull align 8 dereferenceable(24) %3)
  ret i16 %4
}

; Function Attrs: mustprogress nounwind uwtable
define linkonce_odr hidden noundef ptr @_ZN4llvm16cast_convert_valINS_8LoadInstEPKNS_11InstructionES4_E4doitES4_(ptr noundef %0) #0 comdat align 2 {
  %2 = alloca ptr, align 8
  store ptr %0, ptr %2, align 8
  %3 = load ptr, ptr %2, align 8
  ret ptr %3
}

; Function Attrs: mustprogress nounwind uwtable
define linkonce_odr hidden noundef ptr @_ZN4llvm8CastInfoINS_9StoreInstEPKNS_11InstructionEvE6doCastERKS4_(ptr noundef nonnull align 8 dereferenceable(8) %0) #0 comdat align 2 {
  %2 = alloca ptr, align 8
  store ptr %0, ptr %2, align 8
  %3 = load ptr, ptr %2, align 8
  %4 = load ptr, ptr %3, align 8
  %5 = call noundef ptr @_ZN4llvm16cast_convert_valINS_9StoreInstEPKNS_11InstructionES4_E4doitES4_(ptr noundef %4)
  ret ptr %5
}

; Function Attrs: mustprogress nounwind uwtable
define linkonce_odr hidden noundef i32 @_ZNK4llvm11Instruction15getSubclassDataINS_8Bitfield7ElementINS_14AtomicOrderingELj7ELj3ELS4_7EEEEENT_4TypeEv(ptr noundef nonnull align 8 dereferenceable(72) %0) #0 comdat align 2 {
  %2 = alloca ptr, align 8
  store ptr %0, ptr %2, align 8
  %3 = load ptr, ptr %2, align 8
  %4 = call noundef zeroext i16 @_ZNK4llvm11Instruction24getSubclassDataFromValueEv(ptr noundef nonnull align 8 dereferenceable(72) %3)
  %5 = call noundef i32 @_ZN4llvm8Bitfield3getINS0_7ElementINS_14AtomicOrderingELj7ELj3ELS3_7EEEtEENT_4TypeET0_(i16 noundef zeroext %4)
  ret i32 %5
}

; Function Attrs: mustprogress nounwind uwtable
define linkonce_odr hidden noundef ptr @_ZN4llvm8CastInfoINS_8LoadInstEPKNS_11InstructionEvE6doCastERKS4_(ptr noundef nonnull align 8 dereferenceable(8) %0) #0 comdat align 2 {
  %2 = alloca ptr, align 8
  store ptr %0, ptr %2, align 8
  %3 = load ptr, ptr %2, align 8
  %4 = load ptr, ptr %3, align 8
  %5 = call noundef ptr @_ZN4llvm16cast_convert_valINS_8LoadInstEPKNS_11InstructionES4_E4doitES4_(ptr noundef %4)
  ret ptr %5
}

; Function Attrs: mustprogress nounwind uwtable
define linkonce_odr hidden noundef i32 @_ZNK4llvm5Value10getValueIDEv(ptr noundef nonnull align 8 dereferenceable(24) %0) #0 comdat align 2 {
  %2 = alloca ptr, align 8
  store ptr %0, ptr %2, align 8
  %3 = load ptr, ptr %2, align 8
  %4 = getelementptr inbounds nuw %"class.llvm::Value", ptr %3, i32 0, i32 0
  %5 = load i8, ptr %4, align 8
  %6 = zext i8 %5 to i32
  ret i32 %6
}

; Function Attrs: mustprogress nounwind uwtable
define linkonce_odr hidden noundef i32 @_ZNK4llvm9StoreInst11getOrderingEv(ptr noundef nonnull align 8 dereferenceable(73) %0) #0 comdat align 2 {
  %2 = alloca ptr, align 8
  store ptr %0, ptr %2, align 8
  %3 = load ptr, ptr %2, align 8
  %4 = call noundef i32 @_ZNK4llvm11Instruction15getSubclassDataINS_8Bitfield7ElementINS_14AtomicOrderingELj7ELj3ELS4_7EEEEENT_4TypeEv(ptr noundef nonnull align 8 dereferenceable(72) %3)
  ret i32 %4
}

; Function Attrs: mustprogress nounwind uwtable
define linkonce_odr hidden noundef ptr @_ZN4llvm4castINS_9StoreInstEKNS_11InstructionEEEDcPT0_(ptr noundef %0) #0 comdat {
  %2 = alloca ptr, align 8
  store ptr %0, ptr %2, align 8
  %3 = call noundef ptr @_ZN4llvm8CastInfoINS_9StoreInstEPKNS_11InstructionEvE6doCastERKS4_(ptr noundef nonnull align 8 dereferenceable(8) %2)
  ret ptr %3
}

; Function Attrs: mustprogress nounwind uwtable
define linkonce_odr hidden noundef i32 @_ZNK4llvm8LoadInst11getOrderingEv(ptr noundef nonnull align 8 dereferenceable(73) %0) #0 comdat align 2 {
  %2 = alloca ptr, align 8
  store ptr %0, ptr %2, align 8
  %3 = load ptr, ptr %2, align 8
  %4 = call noundef i32 @_ZNK4llvm11Instruction15getSubclassDataINS_8Bitfield7ElementINS_14AtomicOrderingELj7ELj3ELS4_7EEEEENT_4TypeEv(ptr noundef nonnull align 8 dereferenceable(72) %3)
  ret i32 %4
}

; Function Attrs: mustprogress nounwind uwtable
define linkonce_odr hidden noundef ptr @_ZN4llvm4castINS_8LoadInstEKNS_11InstructionEEEDcPT0_(ptr noundef %0) #0 comdat {
  %2 = alloca ptr, align 8
  store ptr %0, ptr %2, align 8
  %3 = call noundef ptr @_ZN4llvm8CastInfoINS_8LoadInstEPKNS_11InstructionEvE6doCastERKS4_(ptr noundef nonnull align 8 dereferenceable(8) %2)
  ret ptr %3
}

; Function Attrs: mustprogress nounwind uwtable
define linkonce_odr hidden noundef i32 @_ZNK4llvm11Instruction9getOpcodeEv(ptr noundef nonnull align 8 dereferenceable(72) %0) #0 comdat align 2 {
  %2 = alloca ptr, align 8
  store ptr %0, ptr %2, align 8
  %3 = load ptr, ptr %2, align 8
  %4 = call noundef i32 @_ZNK4llvm5Value10getValueIDEv(ptr noundef nonnull align 8 dereferenceable(24) %3)
  %5 = sub i32 %4, 29
  ret i32 %5
}

; Function Attrs: mustprogress nounwind willreturn memory(read) uwtable
define dso_local noundef zeroext i1 @_ZNK4llvm11Instruction8isAtomicEv(ptr noundef nonnull align 8 dereferenceable(72) %0) #4 align 2 {
  %2 = alloca i1, align 1
  %3 = alloca ptr, align 8
  store ptr %0, ptr %3, align 8
  %4 = load ptr, ptr %3, align 8
  %5 = call noundef i32 @_ZNK4llvm11Instruction9getOpcodeEv(ptr noundef nonnull align 8 dereferenceable(72) %4)
  switch i32 %5, label %6 [
    i32 36, label %7
    i32 37, label %7
    i32 35, label %7
    i32 32, label %8
    i32 33, label %12
  ]

6:                                                ; preds = %1
  store i1 false, ptr %2, align 1
  br label %16

7:                                                ; preds = %1, %1, %1
  store i1 true, ptr %2, align 1
  br label %16

8:                                                ; preds = %1
  %9 = call noundef ptr @_ZN4llvm4castINS_8LoadInstEKNS_11InstructionEEEDcPT0_(ptr noundef %4)
  %10 = call noundef i32 @_ZNK4llvm8LoadInst11getOrderingEv(ptr noundef nonnull align 8 dereferenceable(73) %9)
  %11 = icmp ne i32 %10, 0
  store i1 %11, ptr %2, align 1
  br label %16

12:                                               ; preds = %1
  %13 = call noundef ptr @_ZN4llvm4castINS_9StoreInstEKNS_11InstructionEEEDcPT0_(ptr noundef %4)
  %14 = call noundef i32 @_ZNK4llvm9StoreInst11getOrderingEv(ptr noundef nonnull align 8 dereferenceable(73) %13)
  %15 = icmp ne i32 %14, 0
  store i1 %15, ptr %2, align 1
  br label %16

16:                                               ; preds = %12, %8, %7, %6
  %17 = load i1, ptr %2, align 1
  ret i1 %17
}