; Function Attrs: mustprogress nofree norecurse nosync nounwind willreturn memory(argmem: read) uwtable
define dso_local noundef zeroext i1 @_ZNK4llvm11Instruction8isAtomicEv(ptr nocapture noundef nonnull readonly align 8 dereferenceable(72) %0) local_unnamed_addr #7 align 2 {
  %2 = load i8, ptr %0, align 8
  switch i8 %2, label %14 [
    i8 65, label %3
    i8 66, label %3
    i8 64, label %3
    i8 61, label %4
    i8 62, label %9
  ]

3:                                                ; preds = %1, %1, %1
  br label %14

4:                                                ; preds = %1
  %5 = getelementptr inbounds nuw i8, ptr %0, i64 2
  %6 = load i16, ptr %5, align 2
  %7 = and i16 %6, 896
  %8 = icmp ne i16 %7, 0
  br label %14

9:                                                ; preds = %1
  %10 = getelementptr inbounds nuw i8, ptr %0, i64 2
  %11 = load i16, ptr %10, align 2
  %12 = and i16 %11, 896
  %13 = icmp ne i16 %12, 0
  br label %14

14:                                               ; preds = %1, %9, %4, %3
  %.0 = phi i1 [ %13, %9 ], [ %8, %4 ], [ true, %3 ], [ false, %1 ]
  ret i1 %.0
}